; Function Attrs: mustprogress uwtable
define void @_ZN32pxrInternal_v0_24__pxrReserved__12GfColorSpaceC2ERKNS_7TfTokenE(ptr noundef nonnull align 8 dereferenceable(16) initializes((0, 8)) %0, ptr noundef nonnull readonly align 8 captures(none) dereferenceable(8) %1) unnamed_addr #0 align 2 personality ptr @__gxx_personality_v0 {
  %3 = alloca %struct.pxr_nc_1_0_ColorSpaceM33Descriptor, align 8
  %4 = tail call noalias noundef nonnull dereferenceable(8) ptr @_Znwm(i64 noundef 8) #15
  store ptr null, ptr %4, align 8
  store ptr %4, ptr %0, align 8
  %5 = getelementptr inbounds nuw i8, ptr %0, i64 8
  tail call void @_ZNSt14__shared_countILN9__gnu_cxx12_Lock_policyE2EEC2IPN32pxrInternal_v0_24__pxrReserved__12GfColorSpace5_DataEEET_(ptr noundef nonnull align 8 dereferenceable(8) %5, ptr noundef nonnull %4)
  %6 = load ptr, ptr %1, align 8
  %7 = ptrtoint ptr %6 to i64
  %8 = and i64 %7, -8
  %.not.i = icmp eq i64 %8, 0
  br i1 %.not.i, label %12, label %9

9:                                                ; preds = %2
  %10 = inttoptr i64 %8 to ptr
  %11 = getelementptr inbounds nuw i8, ptr %10, i64 16
  br label %_ZNK32pxrInternal_v0_24__pxrReserved__7TfToken9GetStringB5cxx11Ev.exit

12:                                               ; preds = %2
  %13 = invoke noundef nonnull align 8 dereferenceable(32) ptr @_ZN32pxrInternal_v0_24__pxrReserved__7TfToken15_GetEmptyStringB5cxx11Ev()
          to label %_ZNK32pxrInternal_v0_24__pxrReserved__7TfToken9GetStringB5cxx11Ev.exit unwind label %38

_ZNK32pxrInternal_v0_24__pxrReserved__7TfToken9GetStringB5cxx11Ev.exit: ; preds = %9, %12
  %14 = phi ptr [ %11, %9 ], [ %13, %12 ]
  %15 = tail call noundef ptr @_ZNKSt7__cxx1112basic_stringIcSt11char_traitsIcESaIcEE5c_strEv(ptr noundef nonnull align 8 dereferenceable(32) %14) #16
  %16 = invoke ptr @pxr_nc_1_0_GetNamedColorSpace(ptr noundef %15)
          to label %17 unwind label %38

17:                                               ; preds = %_ZNK32pxrInternal_v0_24__pxrReserved__7TfToken9GetStringB5cxx11Ev.exit
  %18 = load ptr, ptr %0, align 8
  store ptr %16, ptr %18, align 8
  %19 = load ptr, ptr %0, align 8
  %20 = load ptr, ptr %19, align 8
  %.not = icmp eq ptr %20, null
  br i1 %.not, label %21, label %40

21:                                               ; preds = %17
  %22 = load ptr, ptr %1, align 8
  %23 = ptrtoint ptr %22 to i64
  %24 = and i64 %23, -8
  %.not.i4 = icmp eq i64 %24, 0
  br i1 %.not.i4, label %28, label %25

25:                                               ; preds = %21
  %26 = inttoptr i64 %24 to ptr
  %27 = getelementptr inbounds nuw i8, ptr %26, i64 16
  br label %_ZNK32pxrInternal_v0_24__pxrReserved__7TfToken9GetStringB5cxx11Ev.exit6

28:                                               ; preds = %21
  %29 = invoke noundef nonnull align 8 dereferenceable(32) ptr @_ZN32pxrInternal_v0_24__pxrReserved__7TfToken15_GetEmptyStringB5cxx11Ev()
          to label %_ZNK32pxrInternal_v0_24__pxrReserved__7TfToken9GetStringB5cxx11Ev.exit6 unwind label %38

_ZNK32pxrInternal_v0_24__pxrReserved__7TfToken9GetStringB5cxx11Ev.exit6: ; preds = %25, %28
  %30 = phi ptr [ %27, %25 ], [ %29, %28 ]
  %31 = tail call noundef ptr @_ZNKSt7__cxx1112basic_stringIcSt11char_traitsIcESaIcEE5c_strEv(ptr noundef nonnull align 8 dereferenceable(32) %30) #16
  store ptr %31, ptr %3, align 8
  %32 = getelementptr inbounds nuw i8, ptr %3, i64 8
  call void @llvm.memcpy.p0.p0.i64(ptr noundef nonnull align 8 dereferenceable(36) %32, ptr noundef nonnull align 4 dereferenceable(36) @constinit, i64 36, i1 false)
  %33 = getelementptr inbounds nuw i8, ptr %3, i64 44
  store float 1.000000e+00, ptr %33, align 4
  %34 = getelementptr inbounds nuw i8, ptr %3, i64 48
  store float 0.000000e+00, ptr %34, align 8
  %35 = invoke ptr @pxr_nc_1_0_CreateColorSpaceM33(ptr noundef nonnull %3, ptr noundef null)
          to label %36 unwind label %38

36:                                               ; preds = %_ZNK32pxrInternal_v0_24__pxrReserved__7TfToken9GetStringB5cxx11Ev.exit6
  %37 = load ptr, ptr %0, align 8
  store ptr %35, ptr %37, align 8
  br label %40

38:                                               ; preds = %28, %12, %_ZNK32pxrInternal_v0_24__pxrReserved__7TfToken9GetStringB5cxx11Ev.exit6, %_ZNK32pxrInternal_v0_24__pxrReserved__7TfToken9GetStringB5cxx11Ev.exit
  %39 = landingpad { ptr, i32 }
          cleanup
  call void @_ZNSt10shared_ptrIN32pxrInternal_v0_24__pxrReserved__12GfColorSpace5_DataEED2Ev(ptr noundef nonnull align 8 dereferenceable(16) %0) #16
  resume { ptr, i32 } %39

40:                                               ; preds = %36, %17
  ret void
}